target datalayout = "e-m:e-p270:32:32-p271:32:32-p272:64:64-i64:64-i128:128-f80:128-n8:16:32:64-S128"
target triple = "x86_64-pc-linux-gnu"

%struct.UnitCellInfo = type <{ i32, i32, i8, i8, [2 x i8] }>
%"class.std::vector.134" = type { %"struct.std::_Vector_base.135" }
%"struct.std::_Vector_base.135" = type { %"struct.std::_Vector_base<gmx::BasicVector<float>, std::allocator<gmx::BasicVector<float>>>::_Vector_impl" }
%"struct.std::_Vector_base<gmx::BasicVector<float>, std::allocator<gmx::BasicVector<float>>>::_Vector_impl" = type { %"struct.std::_Vector_base<gmx::BasicVector<float>, std::allocator<gmx::BasicVector<float>>>::_Vector_impl_data" }
%"struct.std::_Vector_base<gmx::BasicVector<float>, std::allocator<gmx::BasicVector<float>>>::_Vector_impl_data" = type { ptr, ptr, ptr }
%struct.t_inputrec = type { i32, i32, i64, i32, i64, i32, i32, i32, i32, i32, i32, i32, i32, i32, i32, i32, double, double, i8, %"class.std::vector.232", float, float, float, i32, i32, i32, i32, float, float, i32, float, i32, i32, i8, i8, i32, float, i32, i32, i8, %struct.PressureCouplingOptions, %"class.std::vector.134", %"class.std::vector.134", i32, float, float, float, float, i32, i32, float, float, float, float, i8, i32, i32, float, float, i32, float, float, i32, %"class.std::unique_ptr.237", i8, %"class.std::unique_ptr.245", i8, %"class.std::unique_ptr.253", i32, float, i32, i8, i32, float, float, float, i32, float, float, i32, float, i32, i32, i32, i32, float, i32, i8, float, i64, i32, i32, float, [2 x i32], [2 x float], float, i8, %"class.std::unique_ptr.261", i8, %"class.std::unique_ptr.269", i8, %"class.std::unique_ptr.277", i32, ptr, i8, ptr, float, [3 x [3 x float]], i32, i32, i32, i32, float, float, float, float, %struct.t_grpopts, i8, i8, i8, i8, ptr, %"class.std::unique_ptr.285" }
%"class.std::vector.232" = type { %"struct.std::_Vector_base.233" }
%"struct.std::_Vector_base.233" = type { %"struct.std::_Vector_base<gmx::MtsLevel, std::allocator<gmx::MtsLevel>>::_Vector_impl" }
%"struct.std::_Vector_base<gmx::MtsLevel, std::allocator<gmx::MtsLevel>>::_Vector_impl" = type { %"struct.std::_Vector_base<gmx::MtsLevel, std::allocator<gmx::MtsLevel>>::_Vector_impl_data" }
%"struct.std::_Vector_base<gmx::MtsLevel, std::allocator<gmx::MtsLevel>>::_Vector_impl_data" = type { ptr, ptr, ptr }
%struct.PressureCouplingOptions = type { i32, i32, i32, float, [3 x [3 x float]], [3 x [3 x float]], i32 }
%"class.std::unique_ptr.237" = type { %"struct.std::__uniq_ptr_data.238" }
%"struct.std::__uniq_ptr_data.238" = type { %"class.std::__uniq_ptr_impl.239" }
%"class.std::__uniq_ptr_impl.239" = type { %"class.std::tuple.240" }
%"class.std::tuple.240" = type { %"struct.std::_Tuple_impl.241" }
%"struct.std::_Tuple_impl.241" = type { %"struct.std::_Head_base.244" }
%"struct.std::_Head_base.244" = type { ptr }
%"class.std::unique_ptr.245" = type { %"struct.std::__uniq_ptr_data.246" }
%"struct.std::__uniq_ptr_data.246" = type { %"class.std::__uniq_ptr_impl.247" }
%"class.std::__uniq_ptr_impl.247" = type { %"class.std::tuple.248" }
%"class.std::tuple.248" = type { %"struct.std::_Tuple_impl.249" }
%"struct.std::_Tuple_impl.249" = type { %"struct.std::_Head_base.252" }
%"struct.std::_Head_base.252" = type { ptr }
%"class.std::unique_ptr.253" = type { %"struct.std::__uniq_ptr_data.254" }
%"struct.std::__uniq_ptr_data.254" = type { %"class.std::__uniq_ptr_impl.255" }
%"class.std::__uniq_ptr_impl.255" = type { %"class.std::tuple.256" }
%"class.std::tuple.256" = type { %"struct.std::_Tuple_impl.257" }
%"struct.std::_Tuple_impl.257" = type { %"struct.std::_Head_base.260" }
%"struct.std::_Head_base.260" = type { ptr }
%"class.std::unique_ptr.261" = type { %"struct.std::__uniq_ptr_data.262" }
%"struct.std::__uniq_ptr_data.262" = type { %"class.std::__uniq_ptr_impl.263" }
%"class.std::__uniq_ptr_impl.263" = type { %"class.std::tuple.264" }
%"class.std::tuple.264" = type { %"struct.std::_Tuple_impl.265" }
%"struct.std::_Tuple_impl.265" = type { %"struct.std::_Head_base.268" }
%"struct.std::_Head_base.268" = type { ptr }
%"class.std::unique_ptr.269" = type { %"struct.std::__uniq_ptr_data.270" }
%"struct.std::__uniq_ptr_data.270" = type { %"class.std::__uniq_ptr_impl.271" }
%"class.std::__uniq_ptr_impl.271" = type { %"class.std::tuple.272" }
%"class.std::tuple.272" = type { %"struct.std::_Tuple_impl.273" }
%"struct.std::_Tuple_impl.273" = type { %"struct.std::_Head_base.276" }
%"struct.std::_Head_base.276" = type { ptr }
%"class.std::unique_ptr.277" = type { %"struct.std::__uniq_ptr_data.278" }
%"struct.std::__uniq_ptr_data.278" = type { %"class.std::__uniq_ptr_impl.279" }
%"class.std::__uniq_ptr_impl.279" = type { %"class.std::tuple.280" }
%"class.std::tuple.280" = type { %"struct.std::_Tuple_impl.281" }
%"struct.std::_Tuple_impl.281" = type { %"struct.std::_Head_base.284" }
%"struct.std::_Head_base.284" = type { ptr }
%struct.t_grpopts = type <{ i32, i32, i32, i32, i32, [4 x i8], ptr, ptr, ptr, ptr, ptr, ptr, ptr, ptr, ptr, ptr, i32, [4 x i8] }>
%"class.std::unique_ptr.285" = type { %"struct.std::__uniq_ptr_data.286" }
%"struct.std::__uniq_ptr_data.286" = type { %"class.std::__uniq_ptr_impl.287" }
%"class.std::__uniq_ptr_impl.287" = type { %"class.std::tuple.288" }
%"class.std::tuple.288" = type { %"struct.std::_Tuple_impl.289" }
%"struct.std::_Tuple_impl.289" = type { %"struct.std::_Head_base.292" }
%"struct.std::_Head_base.292" = type { ptr }

; Function Attrs: mustprogress uwtable
define void @_ZN12UnitCellInfoC2ERK10t_inputrec(ptr noundef nonnull align 4 dereferenceable(10) %0, ptr noundef nonnull align 8 dereferenceable(880) %1) unnamed_addr #0 align 2 {
  %3 = alloca ptr, align 8
  %4 = alloca ptr, align 8
  store ptr %0, ptr %3, align 8, !tbaa !526
  store ptr %1, ptr %4, align 8, !tbaa !528
  %5 = load ptr, ptr %3, align 8
  %6 = getelementptr inbounds nuw %struct.UnitCellInfo, ptr %5, i32 0, i32 0
  %7 = load ptr, ptr %4, align 8, !tbaa !528
  %8 = getelementptr inbounds nuw %struct.t_inputrec, ptr %7, i32 0, i32 32
  %9 = load i32, ptr %8, align 8, !tbaa !530
  %10 = call noundef i32 @_Z16numPbcDimensions7PbcType(i32 noundef %9)
  store i32 %10, ptr %6, align 4, !tbaa !616
  %11 = getelementptr inbounds nuw %struct.UnitCellInfo, ptr %5, i32 0, i32 1
  %12 = load ptr, ptr %4, align 8, !tbaa !528
  %13 = call noundef i32 @_Z20inputrec2nboundeddimPK10t_inputrec(ptr noundef %12)
  store i32 %13, ptr %11, align 4, !tbaa !617
  %14 = getelementptr inbounds nuw %struct.UnitCellInfo, ptr %5, i32 0, i32 2
  %15 = getelementptr inbounds nuw %struct.UnitCellInfo, ptr %5, i32 0, i32 1
  %16 = load i32, ptr %15, align 4, !tbaa !617
  %17 = icmp slt i32 %16, 3
  br i1 %17, label %21, label %18

18:                                               ; preds = %2
  %19 = load ptr, ptr %4, align 8, !tbaa !528
  %20 = call noundef zeroext i1 @_Z18inputrecDynamicBoxPK10t_inputrec(ptr noundef %19)
  br label %21

21:                                               ; preds = %18, %2
  %22 = phi i1 [ true, %2 ], [ %20, %18 ]
  %23 = zext i1 %22 to i8
  store i8 %23, ptr %14, align 4, !tbaa !618
  %24 = getelementptr inbounds nuw %struct.UnitCellInfo, ptr %5, i32 0, i32 3
  %25 = load ptr, ptr %4, align 8, !tbaa !528
  %26 = getelementptr inbounds nuw %struct.t_inputrec, ptr %25, i32 0, i32 32
  %27 = load i32, ptr %26, align 8, !tbaa !530
  %28 = icmp eq i32 %27, 3
  %29 = zext i1 %28 to i8
  store i8 %29, ptr %24, align 1, !tbaa !619
  ret void
}