; Function Attrs: mustprogress uwtable
define void @_ZN12UnitCellInfoC2ERK10t_inputrec(ptr noundef nonnull writeonly align 4 captures(none) dereferenceable(10) initializes((0, 10)) %0, ptr noundef nonnull align 8 dereferenceable(880) %1) unnamed_addr #0 align 2 {
  %3 = getelementptr inbounds nuw i8, ptr %1, i64 176
  %4 = load i32, ptr %3, align 8, !tbaa !349
  %5 = tail call noundef i32 @_Z16numPbcDimensions7PbcType(i32 noundef %4)
  store i32 %5, ptr %0, align 4, !tbaa !435
  %6 = getelementptr inbounds nuw i8, ptr %0, i64 4
  %7 = tail call noundef i32 @_Z20inputrec2nboundeddimPK10t_inputrec(ptr noundef nonnull %1)
  store i32 %7, ptr %6, align 4, !tbaa !436
  %8 = icmp slt i32 %7, 3
  br i1 %8, label %12, label %9

9:                                                ; preds = %2
  %10 = tail call noundef zeroext i1 @_Z18inputrecDynamicBoxPK10t_inputrec(ptr noundef nonnull %1)
  %11 = zext i1 %10 to i8
  br label %12

12:                                               ; preds = %9, %2
  %13 = phi i8 [ 1, %2 ], [ %11, %9 ]
  %14 = getelementptr inbounds nuw i8, ptr %0, i64 8
  store i8 %13, ptr %14, align 4, !tbaa !437
  %15 = getelementptr inbounds nuw i8, ptr %0, i64 9
  %16 = load i32, ptr %3, align 8, !tbaa !349
  %17 = icmp eq i32 %16, 3
  %18 = zext i1 %17 to i8
  store i8 %18, ptr %15, align 1, !tbaa !438
  ret void
}